target datalayout = "e-m:e-p270:32:32-p271:32:32-p272:64:64-i64:64-i128:128-f80:128-n8:16:32:64-S128"
target triple = "x86_64-pc-linux-gnu"

%struct._wmem_tree_key_t = type { i32, ptr }
%struct._packet_info = type { ptr, ptr, i32, i32, %struct.nstime_t, %struct.nstime_t, %struct.nstime_t, i8, ptr, ptr, ptr, ptr, %struct._address, %struct._address, %struct._address, %struct._address, %struct._address, %struct._address, i32, ptr, i8, [3 x i8], %struct.anon, i32, i32, i32, i32, ptr, i8, ptr, ptr, i16, i16, i32, i32, i16, i32, i32, ptr, ptr, ptr, i8, i8, i16, i16, i16, i32, i16, i16, ptr, ptr, ptr, ptr, ptr, i32, i32 }
%struct.nstime_t = type { i64, i32 }
%struct._address = type { i32, i32, ptr, ptr }
%struct.anon = type { i8, [3 x i8] }
%struct._frame_data = type <{ i32, i32, i32, i32, i32, [4 x i8], i64, ptr, ptr, ptr, i8, i16, [5 x i8], %struct.nstime_t, %struct.nstime_t, i32, i32 }>
%struct.nr_drb_rlc_pdcp_mapping_t = type { i8, i16, i8, i8, i8, i8, i8, i8, i8, i8, i8 }
%struct.pdcp_ue_parameters = type { i32, i8, i8, i8, i8, i8, i8 }

@ue_parameters_tree = internal global ptr null, align 8

; Function Attrs: null_pointer_is_valid sspstrong uwtable
define hidden void @set_rlc_nr_drb_pdcp_mapping(ptr noundef %0, ptr noundef %1) #0 {
  %3 = alloca ptr, align 8
  %4 = alloca ptr, align 8
  %5 = alloca [2 x %struct._wmem_tree_key_t], align 16
  %6 = alloca i32, align 4
  %7 = alloca ptr, align 8
  %8 = alloca i32, align 4
  store ptr %0, ptr %3, align 8
  store ptr %1, ptr %4, align 8
  call void @llvm.lifetime.start.p0(i64 32, ptr %5) #12
  call void @llvm.lifetime.start.p0(i64 4, ptr %6) #12
  call void @llvm.lifetime.start.p0(i64 8, ptr %7) #12
  %9 = load ptr, ptr %3, align 8
  %10 = getelementptr inbounds nuw %struct._packet_info, ptr %9, i32 0, i32 8
  %11 = load ptr, ptr %10, align 8
  %12 = getelementptr inbounds nuw %struct._frame_data, ptr %11, i32 0, i32 11
  %13 = load i16, ptr %12, align 1
  %14 = lshr i16 %13, 3
  %15 = and i16 %14, 1
  %16 = zext i16 %15 to i32
  %17 = icmp ne i32 %16, 0
  br i1 %17, label %18, label %19

18:                                               ; preds = %2
  store i32 1, ptr %8, align 4
  br label %101

19:                                               ; preds = %2
  %20 = load ptr, ptr %4, align 8
  %21 = getelementptr inbounds nuw %struct.nr_drb_rlc_pdcp_mapping_t, ptr %20, i32 0, i32 2
  %22 = load i8, ptr %21, align 2
  %23 = zext i8 %22 to i32
  %24 = shl i32 %23, 16
  %25 = load ptr, ptr %4, align 8
  %26 = getelementptr inbounds nuw %struct.nr_drb_rlc_pdcp_mapping_t, ptr %25, i32 0, i32 1
  %27 = load i16, ptr %26, align 2
  %28 = zext i16 %27 to i32
  %29 = or i32 %24, %28
  store i32 %29, ptr %6, align 4
  %30 = getelementptr [2 x %struct._wmem_tree_key_t], ptr %5, i64 0, i64 0
  %31 = getelementptr inbounds nuw %struct._wmem_tree_key_t, ptr %30, i32 0, i32 0
  store i32 1, ptr %31, align 16
  %32 = getelementptr [2 x %struct._wmem_tree_key_t], ptr %5, i64 0, i64 0
  %33 = getelementptr inbounds nuw %struct._wmem_tree_key_t, ptr %32, i32 0, i32 1
  store ptr %6, ptr %33, align 8
  %34 = getelementptr [2 x %struct._wmem_tree_key_t], ptr %5, i64 0, i64 1
  %35 = getelementptr inbounds nuw %struct._wmem_tree_key_t, ptr %34, i32 0, i32 0
  store i32 0, ptr %35, align 16
  %36 = getelementptr [2 x %struct._wmem_tree_key_t], ptr %5, i64 0, i64 1
  %37 = getelementptr inbounds nuw %struct._wmem_tree_key_t, ptr %36, i32 0, i32 1
  store ptr null, ptr %37, align 8
  %38 = load ptr, ptr @ue_parameters_tree, align 8
  %39 = getelementptr inbounds [2 x %struct._wmem_tree_key_t], ptr %5, i64 0, i64 0
  %40 = call ptr @wmem_tree_lookup32_array_le(ptr noundef %38, ptr noundef %39)
  store ptr %40, ptr %7, align 8
  %41 = load ptr, ptr %7, align 8
  %42 = icmp ne ptr %41, null
  br i1 %42, label %43, label %50

43:                                               ; preds = %19
  %44 = load ptr, ptr %7, align 8
  %45 = getelementptr inbounds nuw %struct.pdcp_ue_parameters, ptr %44, i32 0, i32 0
  %46 = load i32, ptr %45, align 4
  %47 = load i32, ptr %6, align 4
  %48 = icmp ne i32 %46, %47
  br i1 %48, label %49, label %50

49:                                               ; preds = %43
  store ptr null, ptr %7, align 8
  br label %50

50:                                               ; preds = %49, %43, %19
  %51 = load ptr, ptr %7, align 8
  %52 = icmp eq ptr %51, null
  br i1 %52, label %53, label %62

53:                                               ; preds = %50
  %54 = call ptr @wmem_file_scope()
  %55 = call noalias ptr @wmem_alloc(ptr noundef %54, i64 noundef 12) #13
  store ptr %55, ptr %7, align 8
  %56 = load i32, ptr %6, align 4
  %57 = load ptr, ptr %7, align 8
  %58 = getelementptr inbounds nuw %struct.pdcp_ue_parameters, ptr %57, i32 0, i32 0
  store i32 %56, ptr %58, align 4
  %59 = load ptr, ptr @ue_parameters_tree, align 8
  %60 = getelementptr inbounds [2 x %struct._wmem_tree_key_t], ptr %5, i64 0, i64 0
  %61 = load ptr, ptr %7, align 8
  call void @wmem_tree_insert32_array(ptr noundef %59, ptr noundef %60, ptr noundef %61)
  br label %62

62:                                               ; preds = %53, %50
  %63 = load ptr, ptr %4, align 8
  %64 = getelementptr inbounds nuw %struct.nr_drb_rlc_pdcp_mapping_t, ptr %63, i32 0, i32 4
  %65 = load i8, ptr %64, align 2
  %66 = load ptr, ptr %7, align 8
  %67 = getelementptr inbounds nuw %struct.pdcp_ue_parameters, ptr %66, i32 0, i32 1
  store i8 %65, ptr %67, align 4
  %68 = load ptr, ptr %4, align 8
  %69 = getelementptr inbounds nuw %struct.nr_drb_rlc_pdcp_mapping_t, ptr %68, i32 0, i32 6
  %70 = load i8, ptr %69, align 2
  %71 = load ptr, ptr %7, align 8
  %72 = getelementptr inbounds nuw %struct.pdcp_ue_parameters, ptr %71, i32 0, i32 2
  store i8 %70, ptr %72, align 1
  %73 = load ptr, ptr %4, align 8
  %74 = getelementptr inbounds nuw %struct.nr_drb_rlc_pdcp_mapping_t, ptr %73, i32 0, i32 7
  %75 = load i8, ptr %74, align 1, !range !6, !noundef !7
  %76 = trunc i8 %75 to i1
  %77 = load ptr, ptr %7, align 8
  %78 = getelementptr inbounds nuw %struct.pdcp_ue_parameters, ptr %77, i32 0, i32 3
  %79 = zext i1 %76 to i8
  store i8 %79, ptr %78, align 2
  %80 = load ptr, ptr %4, align 8
  %81 = getelementptr inbounds nuw %struct.nr_drb_rlc_pdcp_mapping_t, ptr %80, i32 0, i32 8
  %82 = load i8, ptr %81, align 2, !range !6, !noundef !7
  %83 = trunc i8 %82 to i1
  %84 = load ptr, ptr %7, align 8
  %85 = getelementptr inbounds nuw %struct.pdcp_ue_parameters, ptr %84, i32 0, i32 4
  %86 = zext i1 %83 to i8
  store i8 %86, ptr %85, align 1
  %87 = load ptr, ptr %4, align 8
  %88 = getelementptr inbounds nuw %struct.nr_drb_rlc_pdcp_mapping_t, ptr %87, i32 0, i32 9
  %89 = load i8, ptr %88, align 1, !range !6, !noundef !7
  %90 = trunc i8 %89 to i1
  %91 = load ptr, ptr %7, align 8
  %92 = getelementptr inbounds nuw %struct.pdcp_ue_parameters, ptr %91, i32 0, i32 5
  %93 = zext i1 %90 to i8
  store i8 %93, ptr %92, align 4
  %94 = load ptr, ptr %4, align 8
  %95 = getelementptr inbounds nuw %struct.nr_drb_rlc_pdcp_mapping_t, ptr %94, i32 0, i32 10
  %96 = load i8, ptr %95, align 2, !range !6, !noundef !7
  %97 = trunc i8 %96 to i1
  %98 = load ptr, ptr %7, align 8
  %99 = getelementptr inbounds nuw %struct.pdcp_ue_parameters, ptr %98, i32 0, i32 6
  %100 = zext i1 %97 to i8
  store i8 %100, ptr %99, align 1
  store i32 0, ptr %8, align 4
  br label %101

101:                                              ; preds = %62, %18
  call void @llvm.lifetime.end.p0(i64 8, ptr %7) #12
  call void @llvm.lifetime.end.p0(i64 4, ptr %6) #12
  call void @llvm.lifetime.end.p0(i64 32, ptr %5) #12
  %102 = load i32, ptr %8, align 4
  switch i32 %102, label %104 [
    i32 0, label %103
    i32 1, label %103
  ]

103:                                              ; preds = %101, %101
  ret void

104:                                              ; preds = %101
  unreachable
}