; Function Attrs: null_pointer_is_valid sspstrong uwtable
define hidden void @set_rlc_nr_drb_pdcp_mapping(ptr noundef readonly captures(none) %0, ptr noundef readonly captures(none) %1) local_unnamed_addr #0 {
  %3 = alloca [2 x %struct._wmem_tree_key_t], align 16
  %4 = alloca i32, align 4
  call void @llvm.lifetime.start.p0(i64 32, ptr nonnull %3) #10
  call void @llvm.lifetime.start.p0(i64 4, ptr nonnull %4) #10
  %5 = getelementptr inbounds nuw i8, ptr %0, i64 80
  %6 = load ptr, ptr %5, align 8
  %7 = getelementptr inbounds nuw i8, ptr %6, i64 57
  %8 = load i16, ptr %7, align 1
  %9 = and i16 %8, 8
  %.not = icmp eq i16 %9, 0
  br i1 %.not, label %10, label %51

10:                                               ; preds = %2
  %11 = getelementptr inbounds nuw i8, ptr %1, i64 4
  %12 = load i8, ptr %11, align 2
  %13 = zext i8 %12 to i32
  %14 = shl nuw nsw i32 %13, 16
  %15 = getelementptr inbounds nuw i8, ptr %1, i64 2
  %16 = load i16, ptr %15, align 2
  %17 = zext i16 %16 to i32
  %18 = or disjoint i32 %14, %17
  store i32 %18, ptr %4, align 4
  store i32 1, ptr %3, align 16
  %19 = getelementptr inbounds nuw i8, ptr %3, i64 8
  store ptr %4, ptr %19, align 8
  %20 = getelementptr inbounds nuw i8, ptr %3, i64 16
  store i32 0, ptr %20, align 16
  %21 = getelementptr inbounds nuw i8, ptr %3, i64 24
  store ptr null, ptr %21, align 8
  %22 = load ptr, ptr @ue_parameters_tree, align 8
  %23 = call ptr @wmem_tree_lookup32_array_le(ptr noundef %22, ptr noundef nonnull %3)
  %.not22 = icmp eq ptr %23, null
  br i1 %.not22, label %27, label %24

24:                                               ; preds = %10
  %25 = load i32, ptr %23, align 4
  %26 = load i32, ptr %4, align 4
  %.not23 = icmp eq i32 %25, %26
  br i1 %.not23, label %32, label %27

27:                                               ; preds = %24, %10
  %28 = call ptr @wmem_file_scope()
  %29 = call noalias dereferenceable_or_null(12) ptr @wmem_alloc(ptr noundef %28, i64 noundef 12) #11
  %30 = load i32, ptr %4, align 4
  store i32 %30, ptr %29, align 4
  %31 = load ptr, ptr @ue_parameters_tree, align 8
  call void @wmem_tree_insert32_array(ptr noundef %31, ptr noundef nonnull %3, ptr noundef %29)
  br label %32

32:                                               ; preds = %24, %27
  %.1 = phi ptr [ %29, %27 ], [ %23, %24 ]
  %33 = getelementptr inbounds nuw i8, ptr %1, i64 6
  %34 = load i8, ptr %33, align 2
  %35 = getelementptr inbounds nuw i8, ptr %.1, i64 4
  store i8 %34, ptr %35, align 4
  %36 = getelementptr inbounds nuw i8, ptr %1, i64 8
  %37 = load i8, ptr %36, align 2
  %38 = getelementptr inbounds nuw i8, ptr %.1, i64 5
  store i8 %37, ptr %38, align 1
  %39 = getelementptr inbounds nuw i8, ptr %1, i64 9
  %40 = load i8, ptr %39, align 1, !range !6, !noundef !7
  %41 = getelementptr inbounds nuw i8, ptr %.1, i64 6
  store i8 %40, ptr %41, align 2
  %42 = getelementptr inbounds nuw i8, ptr %1, i64 10
  %43 = load i8, ptr %42, align 2, !range !6, !noundef !7
  %44 = getelementptr inbounds nuw i8, ptr %.1, i64 7
  store i8 %43, ptr %44, align 1
  %45 = getelementptr inbounds nuw i8, ptr %1, i64 11
  %46 = load i8, ptr %45, align 1, !range !6, !noundef !7
  %47 = getelementptr inbounds nuw i8, ptr %.1, i64 8
  store i8 %46, ptr %47, align 4
  %48 = getelementptr inbounds nuw i8, ptr %1, i64 12
  %49 = load i8, ptr %48, align 2, !range !6, !noundef !7
  %50 = getelementptr inbounds nuw i8, ptr %.1, i64 9
  store i8 %49, ptr %50, align 1
  br label %51

51:                                               ; preds = %2, %32
  call void @llvm.lifetime.end.p0(i64 4, ptr nonnull %4) #10
  call void @llvm.lifetime.end.p0(i64 32, ptr nonnull %3) #10
  ret void
}